ARM GAS  C:\Users\Rowel\AppData\Local\Temp\ccoc2Esl.s 			page 1


   1              		.syntax unified
   2              		.cpu cortex-m3
   3              		.fpu softvfp
   4              		.eabi_attribute 20, 1
   5              		.eabi_attribute 21, 1
   6              		.eabi_attribute 23, 3
   7              		.eabi_attribute 24, 1
   8              		.eabi_attribute 25, 1
   9              		.eabi_attribute 26, 1
  10              		.eabi_attribute 30, 1
  11              		.eabi_attribute 34, 1
  12              		.eabi_attribute 18, 4
  13              		.thumb
  14              		.syntax unified
  15              		.file	"cyfitter_cfg.c"
  16              		.text
  17              	.Ltext0:
  18              		.cfi_sections	.debug_frame
  19              		.section	.text.CyClockStartupError,"ax",%progbits
  20              		.align	2
  21              		.thumb
  22              		.thumb_func
  23              		.type	CyClockStartupError, %function
  24              	CyClockStartupError:
  25              	.LFB3:
  26              		.file 1 "cyfitter_cfg.c"
   1:cyfitter_cfg.c **** /*******************************************************************************
   2:cyfitter_cfg.c **** * File Name: cyfitter_cfg.c
   3:cyfitter_cfg.c **** * 
   4:cyfitter_cfg.c **** * PSoC Creator  4.0 Update 1
   5:cyfitter_cfg.c **** *
   6:cyfitter_cfg.c **** * Description:
   7:cyfitter_cfg.c **** * This file contains device initialization code.
   8:cyfitter_cfg.c **** * Except for the user defined sections in CyClockStartupError(), this file should not be modified.
   9:cyfitter_cfg.c **** * This file is automatically generated by PSoC Creator.
  10:cyfitter_cfg.c **** *
  11:cyfitter_cfg.c **** ********************************************************************************
  12:cyfitter_cfg.c **** * Copyright (c) 2007-2016 Cypress Semiconductor.  All rights reserved.
  13:cyfitter_cfg.c **** * You may use this file only in accordance with the license, terms, conditions, 
  14:cyfitter_cfg.c **** * disclaimers, and limitations in the end user license agreement accompanying 
  15:cyfitter_cfg.c **** * the software package with which this file was provided.
  16:cyfitter_cfg.c **** ********************************************************************************/
  17:cyfitter_cfg.c **** 
  18:cyfitter_cfg.c **** #include <string.h>
  19:cyfitter_cfg.c **** #include "cytypes.h"
  20:cyfitter_cfg.c **** #include "cydevice_trm.h"
  21:cyfitter_cfg.c **** #include "cyfitter.h"
  22:cyfitter_cfg.c **** #include "CyLib.h"
  23:cyfitter_cfg.c **** #include "cyfitter_cfg.h"
  24:cyfitter_cfg.c **** #include "cyapicallbacks.h"
  25:cyfitter_cfg.c **** 
  26:cyfitter_cfg.c **** #define CY_NEED_CYCLOCKSTARTUPERROR 1
  27:cyfitter_cfg.c **** 
  28:cyfitter_cfg.c **** 
  29:cyfitter_cfg.c **** #if defined(__GNUC__) || defined(__ARMCC_VERSION)
  30:cyfitter_cfg.c ****     #define CYPACKED 
  31:cyfitter_cfg.c ****     #define CYPACKED_ATTR __attribute__ ((packed))
ARM GAS  C:\Users\Rowel\AppData\Local\Temp\ccoc2Esl.s 			page 2


  32:cyfitter_cfg.c ****     #define CYALIGNED __attribute__ ((aligned))
  33:cyfitter_cfg.c ****     #define CY_CFG_UNUSED __attribute__ ((unused))
  34:cyfitter_cfg.c ****     #ifndef CY_CFG_SECTION
  35:cyfitter_cfg.c ****         #define CY_CFG_SECTION __attribute__ ((section(".psocinit")))
  36:cyfitter_cfg.c ****     #endif
  37:cyfitter_cfg.c ****     
  38:cyfitter_cfg.c ****     #if defined(__ARMCC_VERSION)
  39:cyfitter_cfg.c ****         #define CY_CFG_MEMORY_BARRIER() __memory_changed()
  40:cyfitter_cfg.c ****     #else
  41:cyfitter_cfg.c ****         #define CY_CFG_MEMORY_BARRIER() __sync_synchronize()
  42:cyfitter_cfg.c ****     #endif
  43:cyfitter_cfg.c ****     
  44:cyfitter_cfg.c **** #elif defined(__ICCARM__)
  45:cyfitter_cfg.c ****     #include <intrinsics.h>
  46:cyfitter_cfg.c **** 
  47:cyfitter_cfg.c ****     #define CYPACKED __packed
  48:cyfitter_cfg.c ****     #define CYPACKED_ATTR 
  49:cyfitter_cfg.c ****     #define CYALIGNED _Pragma("data_alignment=4")
  50:cyfitter_cfg.c ****     #define CY_CFG_UNUSED _Pragma("diag_suppress=Pe177")
  51:cyfitter_cfg.c ****     #define CY_CFG_SECTION _Pragma("location=\".psocinit\"")
  52:cyfitter_cfg.c ****     
  53:cyfitter_cfg.c ****     #define CY_CFG_MEMORY_BARRIER() __DMB()
  54:cyfitter_cfg.c ****     
  55:cyfitter_cfg.c **** #else
  56:cyfitter_cfg.c ****     #error Unsupported toolchain
  57:cyfitter_cfg.c **** #endif
  58:cyfitter_cfg.c **** 
  59:cyfitter_cfg.c **** 
  60:cyfitter_cfg.c **** CY_CFG_UNUSED
  61:cyfitter_cfg.c **** static void CYMEMZERO(void *s, size_t n);
  62:cyfitter_cfg.c **** CY_CFG_UNUSED
  63:cyfitter_cfg.c **** static void CYMEMZERO(void *s, size_t n)
  64:cyfitter_cfg.c **** {
  65:cyfitter_cfg.c **** 	(void)memset(s, 0, n);
  66:cyfitter_cfg.c **** }
  67:cyfitter_cfg.c **** CY_CFG_UNUSED
  68:cyfitter_cfg.c **** static void CYCONFIGCPY(void *dest, const void *src, size_t n);
  69:cyfitter_cfg.c **** CY_CFG_UNUSED
  70:cyfitter_cfg.c **** static void CYCONFIGCPY(void *dest, const void *src, size_t n)
  71:cyfitter_cfg.c **** {
  72:cyfitter_cfg.c **** 	(void)memcpy(dest, src, n);
  73:cyfitter_cfg.c **** }
  74:cyfitter_cfg.c **** CY_CFG_UNUSED
  75:cyfitter_cfg.c **** static void CYCONFIGCPYCODE(void *dest, const void *src, size_t n);
  76:cyfitter_cfg.c **** CY_CFG_UNUSED
  77:cyfitter_cfg.c **** static void CYCONFIGCPYCODE(void *dest, const void *src, size_t n)
  78:cyfitter_cfg.c **** {
  79:cyfitter_cfg.c **** 	(void)memcpy(dest, src, n);
  80:cyfitter_cfg.c **** }
  81:cyfitter_cfg.c **** 
  82:cyfitter_cfg.c **** 
  83:cyfitter_cfg.c **** 
  84:cyfitter_cfg.c **** 
  85:cyfitter_cfg.c **** /* Clock startup error codes                                                   */
  86:cyfitter_cfg.c **** #define CYCLOCKSTART_NO_ERROR    0u
  87:cyfitter_cfg.c **** #define CYCLOCKSTART_XTAL_ERROR  1u
  88:cyfitter_cfg.c **** #define CYCLOCKSTART_32KHZ_ERROR 2u
ARM GAS  C:\Users\Rowel\AppData\Local\Temp\ccoc2Esl.s 			page 3


  89:cyfitter_cfg.c **** #define CYCLOCKSTART_PLL_ERROR   3u
  90:cyfitter_cfg.c **** 
  91:cyfitter_cfg.c **** 
  92:cyfitter_cfg.c **** #ifdef CY_NEED_CYCLOCKSTARTUPERROR
  93:cyfitter_cfg.c **** /*******************************************************************************
  94:cyfitter_cfg.c **** * Function Name: CyClockStartupError
  95:cyfitter_cfg.c **** ********************************************************************************
  96:cyfitter_cfg.c **** * Summary:
  97:cyfitter_cfg.c **** *  If an error is encountered during clock configuration (crystal startup error,
  98:cyfitter_cfg.c **** *  PLL lock error, etc.), the system will end up here.  Unless reimplemented by
  99:cyfitter_cfg.c **** *  the customer, this function will stop in an infinite loop.
 100:cyfitter_cfg.c **** *
 101:cyfitter_cfg.c **** * Parameters:
 102:cyfitter_cfg.c **** *   void
 103:cyfitter_cfg.c **** *
 104:cyfitter_cfg.c **** * Return:
 105:cyfitter_cfg.c **** *   void
 106:cyfitter_cfg.c **** *
 107:cyfitter_cfg.c **** *******************************************************************************/
 108:cyfitter_cfg.c **** CY_CFG_UNUSED
 109:cyfitter_cfg.c **** static void CyClockStartupError(uint8 errorCode);
 110:cyfitter_cfg.c **** CY_CFG_UNUSED
 111:cyfitter_cfg.c **** static void CyClockStartupError(uint8 errorCode)
 112:cyfitter_cfg.c **** {
  27              		.loc 1 112 0
  28              		.cfi_startproc
  29              		@ Volatile: function does not return.
  30              		@ args = 0, pretend = 0, frame = 0
  31              		@ frame_needed = 0, uses_anonymous_args = 0
  32              		@ link register save eliminated.
  33              	.LVL0:
  34              	.L2:
  35 0000 FEE7     		b	.L2
  36              		.cfi_endproc
  37              	.LFE3:
  38              		.size	CyClockStartupError, .-CyClockStartupError
  39 0002 00BF     		.section	.text.cfg_write_bytes32,"ax",%progbits
  40              		.align	2
  41              		.thumb
  42              		.thumb_func
  43              		.type	cfg_write_bytes32, %function
  44              	cfg_write_bytes32:
  45              	.LFB4:
 113:cyfitter_cfg.c ****     /* To remove the compiler warning if errorCode not used.                */
 114:cyfitter_cfg.c ****     errorCode = errorCode;
 115:cyfitter_cfg.c **** 
 116:cyfitter_cfg.c ****     /* If we have a clock startup error (bad MHz crystal, PLL lock, etc.),  */
 117:cyfitter_cfg.c ****     /* we will end up here to allow the customer to implement something to  */
 118:cyfitter_cfg.c ****     /* deal with the clock condition.                                       */
 119:cyfitter_cfg.c **** 
 120:cyfitter_cfg.c **** #ifdef CY_CFG_CLOCK_STARTUP_ERROR_CALLBACK
 121:cyfitter_cfg.c **** 	CY_CFG_Clock_Startup_ErrorCallback();
 122:cyfitter_cfg.c **** #else
 123:cyfitter_cfg.c **** 	/*  If not using CY_CFG_CLOCK_STARTUP_ERROR_CALLBACK, place your clock startup code here. */
 124:cyfitter_cfg.c ****     /* `#START CyClockStartupError` */
 125:cyfitter_cfg.c **** 
 126:cyfitter_cfg.c ****     /* If we have a clock startup error (bad MHz crystal, PLL lock, etc.),  */
ARM GAS  C:\Users\Rowel\AppData\Local\Temp\ccoc2Esl.s 			page 4


 127:cyfitter_cfg.c ****     /* we will end up here to allow the customer to implement something to  */
 128:cyfitter_cfg.c ****     /* deal with the clock condition.                                       */
 129:cyfitter_cfg.c **** 
 130:cyfitter_cfg.c ****     /* `#END` */
 131:cyfitter_cfg.c **** 
 132:cyfitter_cfg.c ****     /* If nothing else, stop here since the clocks have not started         */
 133:cyfitter_cfg.c ****     /* correctly.                                                           */
 134:cyfitter_cfg.c ****     while(1) {}
 135:cyfitter_cfg.c **** #endif /* CY_CFG_CLOCK_STARTUP_ERROR_CALLBACK */ 
 136:cyfitter_cfg.c **** }
 137:cyfitter_cfg.c **** #endif
 138:cyfitter_cfg.c **** 
 139:cyfitter_cfg.c **** #define CY_CFG_BASE_ADDR_COUNT 11u
 140:cyfitter_cfg.c **** CYPACKED typedef struct
 141:cyfitter_cfg.c **** {
 142:cyfitter_cfg.c **** 	uint8 offset;
 143:cyfitter_cfg.c **** 	uint8 value;
 144:cyfitter_cfg.c **** } CYPACKED_ATTR cy_cfg_addrvalue_t;
 145:cyfitter_cfg.c **** 
 146:cyfitter_cfg.c **** #define cy_cfg_addr_table ((const uint32 CYFAR *)0x48000000u)
 147:cyfitter_cfg.c **** #define cy_cfg_data_table ((const cy_cfg_addrvalue_t CYFAR *)0x4800002Cu)
 148:cyfitter_cfg.c **** 
 149:cyfitter_cfg.c **** /* PICU_0 Address: CYDEV_PICU_INTTYPE_PICU0_BASE Size (bytes): 8 */
 150:cyfitter_cfg.c **** #define BS_PICU_0_VAL ((const uint8 CYFAR *)0x480000ACu)
 151:cyfitter_cfg.c **** 
 152:cyfitter_cfg.c **** /* IOPINS0_0 Address: CYREG_PRT0_DR Size (bytes): 10 */
 153:cyfitter_cfg.c **** #define BS_IOPINS0_0_VAL ((const uint8 CYFAR *)0x480000B4u)
 154:cyfitter_cfg.c **** 
 155:cyfitter_cfg.c **** /* IOPINS0_7 Address: CYREG_PRT12_DM0 Size (bytes): 8 */
 156:cyfitter_cfg.c **** #define BS_IOPINS0_7_VAL ((const uint8 CYFAR *)0x480000C0u)
 157:cyfitter_cfg.c **** 
 158:cyfitter_cfg.c **** /* IOPINS0_1 Address: CYREG_PRT1_DM0 Size (bytes): 8 */
 159:cyfitter_cfg.c **** #define BS_IOPINS0_1_VAL ((const uint8 CYFAR *)0x480000C8u)
 160:cyfitter_cfg.c **** 
 161:cyfitter_cfg.c **** 
 162:cyfitter_cfg.c **** /*******************************************************************************
 163:cyfitter_cfg.c **** * Function Name: cfg_write_bytes32
 164:cyfitter_cfg.c **** ********************************************************************************
 165:cyfitter_cfg.c **** * Summary:
 166:cyfitter_cfg.c **** *  This function is used for setting up the chip configuration areas that
 167:cyfitter_cfg.c **** *  contain relatively sparse data.
 168:cyfitter_cfg.c **** *
 169:cyfitter_cfg.c **** * Parameters:
 170:cyfitter_cfg.c **** *   void
 171:cyfitter_cfg.c **** *
 172:cyfitter_cfg.c **** * Return:
 173:cyfitter_cfg.c **** *   void
 174:cyfitter_cfg.c **** *
 175:cyfitter_cfg.c **** *******************************************************************************/
 176:cyfitter_cfg.c **** static void cfg_write_bytes32(const uint32 addr_table[], const cy_cfg_addrvalue_t data_table[]);
 177:cyfitter_cfg.c **** static void cfg_write_bytes32(const uint32 addr_table[], const cy_cfg_addrvalue_t data_table[])
 178:cyfitter_cfg.c **** {
  46              		.loc 1 178 0
  47              		.cfi_startproc
  48              		@ args = 0, pretend = 0, frame = 0
  49              		@ frame_needed = 0, uses_anonymous_args = 0
  50              		@ link register save eliminated.
ARM GAS  C:\Users\Rowel\AppData\Local\Temp\ccoc2Esl.s 			page 5


  51              	.LVL1:
  52              		.loc 1 178 0
  53 0000 F0B4     		push	{r4, r5, r6, r7}
  54              		.cfi_def_cfa_offset 16
  55              		.cfi_offset 4, -16
  56              		.cfi_offset 5, -12
  57              		.cfi_offset 6, -8
  58              		.cfi_offset 7, -4
  59              	.LVL2:
 179:cyfitter_cfg.c **** 	/* For 32-bit little-endian architectures */
 180:cyfitter_cfg.c **** 	uint32 i, j = 0u;
  60              		.loc 1 180 0
  61 0002 0022     		movs	r2, #0
 181:cyfitter_cfg.c **** 	for (i = 0u; i < CY_CFG_BASE_ADDR_COUNT; i++)
  62              		.loc 1 181 0
  63 0004 1746     		mov	r7, r2
  64 0006 11E0     		b	.L4
  65              	.LVL3:
  66              	.L7:
  67              	.LBB2:
 182:cyfitter_cfg.c **** 	{
 183:cyfitter_cfg.c **** 		uint32 baseAddr = addr_table[i];
  68              		.loc 1 183 0
  69 0008 50F82760 		ldr	r6, [r0, r7, lsl #2]
  70              	.LVL4:
 184:cyfitter_cfg.c **** 		uint8 count = (uint8)baseAddr;
  71              		.loc 1 184 0
  72 000c F3B2     		uxtb	r3, r6
  73              	.LVL5:
 185:cyfitter_cfg.c **** 		baseAddr &= 0xFFFFFF00u;
  74              		.loc 1 185 0
  75 000e 26F0FF06 		bic	r6, r6, #255
  76              	.LVL6:
 186:cyfitter_cfg.c **** 		while (count != 0u)
  77              		.loc 1 186 0
  78 0012 08E0     		b	.L5
  79              	.L6:
 187:cyfitter_cfg.c **** 		{
 188:cyfitter_cfg.c **** 			CY_SET_XTND_REG8((void CYFAR *)(baseAddr + data_table[j].offset), data_table[j].value);
  80              		.loc 1 188 0
  81 0014 01EB4205 		add	r5, r1, r2, lsl #1
  82 0018 11F81240 		ldrb	r4, [r1, r2, lsl #1]	@ zero_extendqisi2
  83 001c 6D78     		ldrb	r5, [r5, #1]	@ zero_extendqisi2
  84 001e A555     		strb	r5, [r4, r6]
 189:cyfitter_cfg.c **** 			j++;
  85              		.loc 1 189 0
  86 0020 0132     		adds	r2, r2, #1
  87              	.LVL7:
 190:cyfitter_cfg.c **** 			count--;
  88              		.loc 1 190 0
  89 0022 013B     		subs	r3, r3, #1
  90              	.LVL8:
  91 0024 DBB2     		uxtb	r3, r3
  92              	.LVL9:
  93              	.L5:
 186:cyfitter_cfg.c **** 		{
  94              		.loc 1 186 0
ARM GAS  C:\Users\Rowel\AppData\Local\Temp\ccoc2Esl.s 			page 6


  95 0026 002B     		cmp	r3, #0
  96 0028 F4D1     		bne	.L6
  97              	.LBE2:
 181:cyfitter_cfg.c **** 	{
  98              		.loc 1 181 0 discriminator 2
  99 002a 0137     		adds	r7, r7, #1
 100              	.LVL10:
 101              	.L4:
 181:cyfitter_cfg.c **** 	{
 102              		.loc 1 181 0 is_stmt 0 discriminator 1
 103 002c 0A2F     		cmp	r7, #10
 104 002e EBD9     		bls	.L7
 191:cyfitter_cfg.c **** 		}
 192:cyfitter_cfg.c **** 	}
 193:cyfitter_cfg.c **** }
 105              		.loc 1 193 0 is_stmt 1
 106 0030 F0BC     		pop	{r4, r5, r6, r7}
 107              		.cfi_restore 7
 108              		.cfi_restore 6
 109              		.cfi_restore 5
 110              		.cfi_restore 4
 111              		.cfi_def_cfa_offset 0
 112              	.LVL11:
 113 0032 7047     		bx	lr
 114              		.cfi_endproc
 115              	.LFE4:
 116              		.size	cfg_write_bytes32, .-cfg_write_bytes32
 117              		.section	.text.AnalogSetDefault,"ax",%progbits
 118              		.align	2
 119              		.thumb
 120              		.thumb_func
 121              		.type	AnalogSetDefault, %function
 122              	AnalogSetDefault:
 123              	.LFB6:
 194:cyfitter_cfg.c **** 
 195:cyfitter_cfg.c **** /*******************************************************************************
 196:cyfitter_cfg.c **** * Function Name: ClockSetup
 197:cyfitter_cfg.c **** ********************************************************************************
 198:cyfitter_cfg.c **** *
 199:cyfitter_cfg.c **** * Summary:
 200:cyfitter_cfg.c **** *  Performs the initialization of all of the clocks in the device based on the
 201:cyfitter_cfg.c **** *  settings in the Clock tab of the DWR.  This includes enabling the requested
 202:cyfitter_cfg.c **** *  clocks and setting the necessary dividers to produce the desired frequency. 
 203:cyfitter_cfg.c **** *
 204:cyfitter_cfg.c **** * Parameters:
 205:cyfitter_cfg.c **** *  void
 206:cyfitter_cfg.c **** *
 207:cyfitter_cfg.c **** * Return:
 208:cyfitter_cfg.c **** *  void
 209:cyfitter_cfg.c **** *
 210:cyfitter_cfg.c **** *******************************************************************************/
 211:cyfitter_cfg.c **** static void ClockSetup(void);
 212:cyfitter_cfg.c **** static void ClockSetup(void)
 213:cyfitter_cfg.c **** {
 214:cyfitter_cfg.c **** 	uint32 timeout;
 215:cyfitter_cfg.c **** 	uint8 pllLock;
 216:cyfitter_cfg.c **** 
ARM GAS  C:\Users\Rowel\AppData\Local\Temp\ccoc2Esl.s 			page 7


 217:cyfitter_cfg.c **** 
 218:cyfitter_cfg.c **** 	/* Configure Digital Clocks based on settings from Clock DWR */
 219:cyfitter_cfg.c **** 	CY_SET_XTND_REG16((void CYFAR *)(CYREG_CLKDIST_DCFG0_CFG0), 0x0017u);
 220:cyfitter_cfg.c **** 	CY_SET_XTND_REG8((void CYFAR *)(CYREG_CLKDIST_DCFG0_CFG0 + 0x2u), 0x18u);
 221:cyfitter_cfg.c **** 	CY_SET_XTND_REG16((void CYFAR *)(CYREG_CLKDIST_DCFG1_CFG0), 0x0017u);
 222:cyfitter_cfg.c **** 	CY_SET_XTND_REG8((void CYFAR *)(CYREG_CLKDIST_DCFG1_CFG0 + 0x2u), 0x18u);
 223:cyfitter_cfg.c **** 
 224:cyfitter_cfg.c **** 	/* Configure ILO based on settings from Clock DWR */
 225:cyfitter_cfg.c **** 	CY_SET_XTND_REG8((void CYFAR *)(CYREG_SLOWCLK_ILO_CR0), 0x02u);
 226:cyfitter_cfg.c **** 	CY_SET_XTND_REG8((void CYFAR *)(CYREG_CLKDIST_CR), 0x08u);
 227:cyfitter_cfg.c **** 
 228:cyfitter_cfg.c **** 	/* Configure IMO based on settings from Clock DWR */
 229:cyfitter_cfg.c **** 	CY_SET_XTND_REG8((void CYFAR *)(CYREG_FASTCLK_IMO_CR), 0x03u);
 230:cyfitter_cfg.c **** 	CY_SET_XTND_REG8((void CYFAR *)(CYREG_IMO_TR1), (CY_GET_XTND_REG8((void CYFAR *)CYREG_FLSHID_CUST_
 231:cyfitter_cfg.c **** 
 232:cyfitter_cfg.c **** 	/* Configure PLL based on settings from Clock DWR */
 233:cyfitter_cfg.c **** 	CY_SET_XTND_REG16((void CYFAR *)(CYREG_FASTCLK_PLL_P), 0x0008u);
 234:cyfitter_cfg.c **** 	CY_SET_XTND_REG16((void CYFAR *)(CYREG_FASTCLK_PLL_CFG0), 0x1251u);
 235:cyfitter_cfg.c **** 	/* Wait up to 250us for the PLL to lock */
 236:cyfitter_cfg.c **** 	pllLock = 0u;
 237:cyfitter_cfg.c **** 	for (timeout = 250u / 10u; (timeout > 0u) && (pllLock != 0x03u); timeout--)
 238:cyfitter_cfg.c **** 	{ 
 239:cyfitter_cfg.c **** 		pllLock = 0x03u & ((uint8)((uint8)pllLock << 1) | ((CY_GET_XTND_REG8((void CYFAR *)CYREG_FASTCLK_
 240:cyfitter_cfg.c **** 		CyDelayCycles(10u * 48u); /* Delay 10us based on 48MHz clock */
 241:cyfitter_cfg.c **** 	}
 242:cyfitter_cfg.c **** 	/* If we ran out of time the PLL didn't lock so go to the error function */
 243:cyfitter_cfg.c **** 	if (timeout == 0u)
 244:cyfitter_cfg.c **** 	{
 245:cyfitter_cfg.c **** 		CyClockStartupError(CYCLOCKSTART_PLL_ERROR);
 246:cyfitter_cfg.c **** 	}
 247:cyfitter_cfg.c **** 
 248:cyfitter_cfg.c **** 	/* Configure Bus/Master Clock based on settings from Clock DWR */
 249:cyfitter_cfg.c **** 	CY_SET_XTND_REG16((void CYFAR *)(CYREG_CLKDIST_MSTR0), 0x0100u);
 250:cyfitter_cfg.c **** 	CY_SET_XTND_REG8((void CYFAR *)(CYREG_CLKDIST_MSTR0), 0x07u);
 251:cyfitter_cfg.c **** 	CY_SET_XTND_REG8((void CYFAR *)(CYREG_CLKDIST_BCFG0), 0x00u);
 252:cyfitter_cfg.c **** 	CY_SET_XTND_REG8((void CYFAR *)(CYREG_CLKDIST_BCFG2), 0x48u);
 253:cyfitter_cfg.c **** 	CY_SET_XTND_REG8((void CYFAR *)(CYREG_CLKDIST_MSTR0), 0x00u);
 254:cyfitter_cfg.c **** 	CY_SET_XTND_REG8((void CYFAR *)(CYREG_CLKDIST_LD), 0x02u);
 255:cyfitter_cfg.c **** 
 256:cyfitter_cfg.c **** 	CY_SET_XTND_REG8((void CYFAR *)(CYREG_PM_ACT_CFG2), ((CY_GET_XTND_REG8((void CYFAR *)CYREG_PM_ACT_
 257:cyfitter_cfg.c **** }
 258:cyfitter_cfg.c **** 
 259:cyfitter_cfg.c **** 
 260:cyfitter_cfg.c **** /* Analog API Functions */
 261:cyfitter_cfg.c **** 
 262:cyfitter_cfg.c **** 
 263:cyfitter_cfg.c **** /*******************************************************************************
 264:cyfitter_cfg.c **** * Function Name: AnalogSetDefault
 265:cyfitter_cfg.c **** ********************************************************************************
 266:cyfitter_cfg.c **** *
 267:cyfitter_cfg.c **** * Summary:
 268:cyfitter_cfg.c **** *  Sets up the analog portions of the chip to default values based on chip
 269:cyfitter_cfg.c **** *  configuration options from the project.
 270:cyfitter_cfg.c **** *
 271:cyfitter_cfg.c **** * Parameters:
 272:cyfitter_cfg.c **** *  void
 273:cyfitter_cfg.c **** *
ARM GAS  C:\Users\Rowel\AppData\Local\Temp\ccoc2Esl.s 			page 8


 274:cyfitter_cfg.c **** * Return:
 275:cyfitter_cfg.c **** *  void
 276:cyfitter_cfg.c **** *
 277:cyfitter_cfg.c **** *******************************************************************************/
 278:cyfitter_cfg.c **** static void AnalogSetDefault(void);
 279:cyfitter_cfg.c **** static void AnalogSetDefault(void)
 280:cyfitter_cfg.c **** {
 124              		.loc 1 280 0
 125              		.cfi_startproc
 126              		@ args = 0, pretend = 0, frame = 0
 127              		@ frame_needed = 0, uses_anonymous_args = 0
 128              		@ link register save eliminated.
 281:cyfitter_cfg.c **** 	uint8 bg_xover_inl_trim = CY_GET_XTND_REG8((void CYFAR *)(CYREG_FLSHID_MFG_CFG_BG_XOVER_INL_TRIM +
 129              		.loc 1 281 0
 130 0000 0A4B     		ldr	r3, .L10
 131 0002 1B78     		ldrb	r3, [r3]	@ zero_extendqisi2
 132 0004 DBB2     		uxtb	r3, r3
 133              	.LVL12:
 282:cyfitter_cfg.c **** 	CY_SET_XTND_REG8((void CYFAR *)(CYREG_BG_DFT0), (bg_xover_inl_trim & 0x07u));
 134              		.loc 1 282 0
 135 0006 03F00701 		and	r1, r3, #7
 136 000a 094A     		ldr	r2, .L10+4
 137 000c 1170     		strb	r1, [r2]
 283:cyfitter_cfg.c **** 	CY_SET_XTND_REG8((void CYFAR *)(CYREG_BG_DFT1), ((bg_xover_inl_trim >> 4) & 0x0Fu));
 138              		.loc 1 283 0
 139 000e 1B09     		lsrs	r3, r3, #4
 140              	.LVL13:
 141 0010 0132     		adds	r2, r2, #1
 142 0012 1370     		strb	r3, [r2]
 284:cyfitter_cfg.c **** 	CY_SET_XTND_REG8((void CYFAR *)CYREG_PRT1_AMUX, 0x40u);
 143              		.loc 1 284 0
 144 0014 4022     		movs	r2, #64
 145 0016 074B     		ldr	r3, .L10+8
 146 0018 1A70     		strb	r2, [r3]
 285:cyfitter_cfg.c **** 	CY_SET_XTND_REG8((void CYFAR *)CYREG_DAC3_SW3, 0x01u);
 147              		.loc 1 285 0
 148 001a 0122     		movs	r2, #1
 149 001c 03F67F13 		addw	r3, r3, #2431
 150 0020 1A70     		strb	r2, [r3]
 286:cyfitter_cfg.c **** 	CY_SET_XTND_REG8((void CYFAR *)CYREG_PUMP_CR0, 0x44u);
 151              		.loc 1 286 0
 152 0022 4422     		movs	r2, #68
 153 0024 A3F22523 		subw	r3, r3, #549
 154 0028 1A70     		strb	r2, [r3]
 155 002a 7047     		bx	lr
 156              	.L11:
 157              		.align	2
 158              	.L10:
 159 002c CF010049 		.word	1224737231
 160 0030 6E580040 		.word	1073764462
 161 0034 1C510040 		.word	1073762588
 162              		.cfi_endproc
 163              	.LFE6:
 164              		.size	AnalogSetDefault, .-AnalogSetDefault
 165              		.section	.text.CYMEMZERO,"ax",%progbits
 166              		.align	2
 167              		.thumb
ARM GAS  C:\Users\Rowel\AppData\Local\Temp\ccoc2Esl.s 			page 9


 168              		.thumb_func
 169              		.type	CYMEMZERO, %function
 170              	CYMEMZERO:
 171              	.LFB0:
  64:cyfitter_cfg.c **** 	(void)memset(s, 0, n);
 172              		.loc 1 64 0
 173              		.cfi_startproc
 174              		@ args = 0, pretend = 0, frame = 0
 175              		@ frame_needed = 0, uses_anonymous_args = 0
 176              	.LVL14:
 177 0000 08B5     		push	{r3, lr}
 178              		.cfi_def_cfa_offset 8
 179              		.cfi_offset 3, -8
 180              		.cfi_offset 14, -4
  65:cyfitter_cfg.c **** }
 181              		.loc 1 65 0
 182 0002 0A46     		mov	r2, r1
 183 0004 0021     		movs	r1, #0
 184              	.LVL15:
 185 0006 FFF7FEFF 		bl	memset
 186              	.LVL16:
 187 000a 08BD     		pop	{r3, pc}
 188              		.cfi_endproc
 189              	.LFE0:
 190              		.size	CYMEMZERO, .-CYMEMZERO
 191              		.section	.text.ClockSetup,"ax",%progbits
 192              		.align	2
 193              		.thumb
 194              		.thumb_func
 195              		.type	ClockSetup, %function
 196              	ClockSetup:
 197              	.LFB5:
 213:cyfitter_cfg.c **** 	uint32 timeout;
 198              		.loc 1 213 0
 199              		.cfi_startproc
 200              		@ args = 0, pretend = 0, frame = 0
 201              		@ frame_needed = 0, uses_anonymous_args = 0
 202 0000 38B5     		push	{r3, r4, r5, lr}
 203              		.cfi_def_cfa_offset 16
 204              		.cfi_offset 3, -16
 205              		.cfi_offset 4, -12
 206              		.cfi_offset 5, -8
 207              		.cfi_offset 14, -4
 219:cyfitter_cfg.c **** 	CY_SET_XTND_REG8((void CYFAR *)(CYREG_CLKDIST_DCFG0_CFG0 + 0x2u), 0x18u);
 208              		.loc 1 219 0
 209 0002 1722     		movs	r2, #23
 210 0004 254B     		ldr	r3, .L20
 211 0006 1A80     		strh	r2, [r3]	@ movhi
 220:cyfitter_cfg.c **** 	CY_SET_XTND_REG16((void CYFAR *)(CYREG_CLKDIST_DCFG1_CFG0), 0x0017u);
 212              		.loc 1 220 0
 213 0008 1823     		movs	r3, #24
 214 000a 2549     		ldr	r1, .L20+4
 215 000c 0B70     		strb	r3, [r1]
 221:cyfitter_cfg.c **** 	CY_SET_XTND_REG8((void CYFAR *)(CYREG_CLKDIST_DCFG1_CFG0 + 0x2u), 0x18u);
 216              		.loc 1 221 0
 217 000e 0231     		adds	r1, r1, #2
 218 0010 0A80     		strh	r2, [r1]	@ movhi
ARM GAS  C:\Users\Rowel\AppData\Local\Temp\ccoc2Esl.s 			page 10


 222:cyfitter_cfg.c **** 
 219              		.loc 1 222 0
 220 0012 244A     		ldr	r2, .L20+8
 221 0014 1370     		strb	r3, [r2]
 225:cyfitter_cfg.c **** 	CY_SET_XTND_REG8((void CYFAR *)(CYREG_CLKDIST_CR), 0x08u);
 222              		.loc 1 225 0
 223 0016 0222     		movs	r2, #2
 224 0018 234B     		ldr	r3, .L20+12
 225 001a 1A70     		strb	r2, [r3]
 226:cyfitter_cfg.c **** 
 226              		.loc 1 226 0
 227 001c 0822     		movs	r2, #8
 228 001e 4FF04023 		mov	r3, #1073758208
 229 0022 1A70     		strb	r2, [r3]
 229:cyfitter_cfg.c **** 	CY_SET_XTND_REG8((void CYFAR *)(CYREG_IMO_TR1), (CY_GET_XTND_REG8((void CYFAR *)CYREG_FLSHID_CUST_
 230              		.loc 1 229 0
 231 0024 0321     		movs	r1, #3
 232 0026 03F50073 		add	r3, r3, #512
 233 002a 1970     		strb	r1, [r3]
 230:cyfitter_cfg.c **** 
 234              		.loc 1 230 0
 235 002c 1F4B     		ldr	r3, .L20+16
 236 002e 1B78     		ldrb	r3, [r3]	@ zero_extendqisi2
 237 0030 DBB2     		uxtb	r3, r3
 238 0032 1F49     		ldr	r1, .L20+20
 239 0034 0B70     		strb	r3, [r1]
 233:cyfitter_cfg.c **** 	CY_SET_XTND_REG16((void CYFAR *)(CYREG_FASTCLK_PLL_CFG0), 0x1251u);
 240              		.loc 1 233 0
 241 0036 1F4B     		ldr	r3, .L20+24
 242 0038 1A80     		strh	r2, [r3]	@ movhi
 234:cyfitter_cfg.c **** 	/* Wait up to 250us for the PLL to lock */
 243              		.loc 1 234 0
 244 003a 41F25122 		movw	r2, #4689
 245 003e 023B     		subs	r3, r3, #2
 246 0040 1A80     		strh	r2, [r3]	@ movhi
 247              	.LVL17:
 236:cyfitter_cfg.c **** 	for (timeout = 250u / 10u; (timeout > 0u) && (pllLock != 0x03u); timeout--)
 248              		.loc 1 236 0
 249 0042 0024     		movs	r4, #0
 237:cyfitter_cfg.c **** 	{ 
 250              		.loc 1 237 0
 251 0044 1925     		movs	r5, #25
 252 0046 0CE0     		b	.L15
 253              	.LVL18:
 254              	.L17:
 239:cyfitter_cfg.c **** 		CyDelayCycles(10u * 48u); /* Delay 10us based on 48MHz clock */
 255              		.loc 1 239 0 discriminator 4
 256 0048 1B4B     		ldr	r3, .L20+28
 257 004a 1B78     		ldrb	r3, [r3]	@ zero_extendqisi2
 258 004c 03F00103 		and	r3, r3, #1
 259 0050 43EA4404 		orr	r4, r3, r4, lsl #1
 260              	.LVL19:
 261 0054 04F00304 		and	r4, r4, #3
 262              	.LVL20:
 240:cyfitter_cfg.c **** 	}
 263              		.loc 1 240 0 discriminator 4
 264 0058 4FF4F070 		mov	r0, #480
ARM GAS  C:\Users\Rowel\AppData\Local\Temp\ccoc2Esl.s 			page 11


 265 005c FFF7FEFF 		bl	CyDelayCycles
 266              	.LVL21:
 237:cyfitter_cfg.c **** 	{ 
 267              		.loc 1 237 0 discriminator 4
 268 0060 013D     		subs	r5, r5, #1
 269              	.LVL22:
 270              	.L15:
 237:cyfitter_cfg.c **** 	{ 
 271              		.loc 1 237 0 is_stmt 0 discriminator 1
 272 0062 0DB1     		cbz	r5, .L16
 237:cyfitter_cfg.c **** 	{ 
 273              		.loc 1 237 0 discriminator 3
 274 0064 032C     		cmp	r4, #3
 275 0066 EFD1     		bne	.L17
 276              	.L16:
 243:cyfitter_cfg.c **** 	{
 277              		.loc 1 243 0 is_stmt 1
 278 0068 15B9     		cbnz	r5, .L18
 245:cyfitter_cfg.c **** 	}
 279              		.loc 1 245 0
 280 006a 0320     		movs	r0, #3
 281 006c FFF7FEFF 		bl	CyClockStartupError
 282              	.LVL23:
 283              	.L18:
 249:cyfitter_cfg.c **** 	CY_SET_XTND_REG8((void CYFAR *)(CYREG_CLKDIST_MSTR0), 0x07u);
 284              		.loc 1 249 0
 285 0070 124B     		ldr	r3, .L20+32
 286 0072 4FF48072 		mov	r2, #256
 287 0076 1A80     		strh	r2, [r3]	@ movhi
 250:cyfitter_cfg.c **** 	CY_SET_XTND_REG8((void CYFAR *)(CYREG_CLKDIST_BCFG0), 0x00u);
 288              		.loc 1 250 0
 289 0078 0722     		movs	r2, #7
 290 007a 1A70     		strb	r2, [r3]
 251:cyfitter_cfg.c **** 	CY_SET_XTND_REG8((void CYFAR *)(CYREG_CLKDIST_BCFG2), 0x48u);
 291              		.loc 1 251 0
 292 007c 0022     		movs	r2, #0
 293 007e 1049     		ldr	r1, .L20+36
 294 0080 0A70     		strb	r2, [r1]
 252:cyfitter_cfg.c **** 	CY_SET_XTND_REG8((void CYFAR *)(CYREG_CLKDIST_MSTR0), 0x00u);
 295              		.loc 1 252 0
 296 0082 4820     		movs	r0, #72
 297 0084 0231     		adds	r1, r1, #2
 298 0086 0870     		strb	r0, [r1]
 253:cyfitter_cfg.c **** 	CY_SET_XTND_REG8((void CYFAR *)(CYREG_CLKDIST_LD), 0x02u);
 299              		.loc 1 253 0
 300 0088 1A70     		strb	r2, [r3]
 254:cyfitter_cfg.c **** 
 301              		.loc 1 254 0
 302 008a 0222     		movs	r2, #2
 303 008c 033B     		subs	r3, r3, #3
 304 008e 1A70     		strb	r2, [r3]
 256:cyfitter_cfg.c **** }
 305              		.loc 1 256 0
 306 0090 0C4A     		ldr	r2, .L20+40
 307 0092 1378     		ldrb	r3, [r2]	@ zero_extendqisi2
 308 0094 43F00303 		orr	r3, r3, #3
 309 0098 1370     		strb	r3, [r2]
ARM GAS  C:\Users\Rowel\AppData\Local\Temp\ccoc2Esl.s 			page 12


 310 009a 38BD     		pop	{r3, r4, r5, pc}
 311              	.LVL24:
 312              	.L21:
 313              		.align	2
 314              	.L20:
 315 009c 80400040 		.word	1073758336
 316 00a0 82400040 		.word	1073758338
 317 00a4 86400040 		.word	1073758342
 318 00a8 00430040 		.word	1073758976
 319 00ac 08010049 		.word	1224737032
 320 00b0 A1460040 		.word	1073759905
 321 00b4 22420040 		.word	1073758754
 322 00b8 25420040 		.word	1073758757
 323 00bc 04400040 		.word	1073758212
 324 00c0 06400040 		.word	1073758214
 325 00c4 A2430040 		.word	1073759138
 326              		.cfi_endproc
 327              	.LFE5:
 328              		.size	ClockSetup, .-ClockSetup
 329              		.section	.text.CYCONFIGCPY,"ax",%progbits
 330              		.align	2
 331              		.thumb
 332              		.thumb_func
 333              		.type	CYCONFIGCPY, %function
 334              	CYCONFIGCPY:
 335              	.LFB1:
  71:cyfitter_cfg.c **** 	(void)memcpy(dest, src, n);
 336              		.loc 1 71 0
 337              		.cfi_startproc
 338              		@ args = 0, pretend = 0, frame = 0
 339              		@ frame_needed = 0, uses_anonymous_args = 0
 340              	.LVL25:
 341 0000 08B5     		push	{r3, lr}
 342              		.cfi_def_cfa_offset 8
 343              		.cfi_offset 3, -8
 344              		.cfi_offset 14, -4
  72:cyfitter_cfg.c **** }
 345              		.loc 1 72 0
 346 0002 FFF7FEFF 		bl	memcpy
 347              	.LVL26:
 348 0006 08BD     		pop	{r3, pc}
 349              		.cfi_endproc
 350              	.LFE1:
 351              		.size	CYCONFIGCPY, .-CYCONFIGCPY
 352              		.section	.text.SetAnalogRoutingPumps,"ax",%progbits
 353              		.align	2
 354              		.global	SetAnalogRoutingPumps
 355              		.thumb
 356              		.thumb_func
 357              		.type	SetAnalogRoutingPumps, %function
 358              	SetAnalogRoutingPumps:
 359              	.LFB7:
 287:cyfitter_cfg.c **** }
 288:cyfitter_cfg.c **** 
 289:cyfitter_cfg.c **** 
 290:cyfitter_cfg.c **** /*******************************************************************************
 291:cyfitter_cfg.c **** * Function Name: SetAnalogRoutingPumps
ARM GAS  C:\Users\Rowel\AppData\Local\Temp\ccoc2Esl.s 			page 13


 292:cyfitter_cfg.c **** ********************************************************************************
 293:cyfitter_cfg.c **** *
 294:cyfitter_cfg.c **** * Summary:
 295:cyfitter_cfg.c **** * Enables or disables the analog pumps feeding analog routing switches.
 296:cyfitter_cfg.c **** * Intended to be called at startup, based on the Vdda system configuration;
 297:cyfitter_cfg.c **** * may be called during operation when the user informs us that the Vdda voltage
 298:cyfitter_cfg.c **** * crossed the pump threshold.
 299:cyfitter_cfg.c **** *
 300:cyfitter_cfg.c **** * Parameters:
 301:cyfitter_cfg.c **** *  enabled - 1 to enable the pumps, 0 to disable the pumps
 302:cyfitter_cfg.c **** *
 303:cyfitter_cfg.c **** * Return:
 304:cyfitter_cfg.c **** *  void
 305:cyfitter_cfg.c **** *
 306:cyfitter_cfg.c **** *******************************************************************************/
 307:cyfitter_cfg.c **** void SetAnalogRoutingPumps(uint8 enabled)
 308:cyfitter_cfg.c **** {
 360              		.loc 1 308 0
 361              		.cfi_startproc
 362              		@ args = 0, pretend = 0, frame = 0
 363              		@ frame_needed = 0, uses_anonymous_args = 0
 364              		@ link register save eliminated.
 365              	.LVL27:
 309:cyfitter_cfg.c **** 	uint8 regValue = CY_GET_XTND_REG8((void CYFAR *)CYREG_PUMP_CR0);
 366              		.loc 1 309 0
 367 0000 024A     		ldr	r2, .L25
 368 0002 1378     		ldrb	r3, [r2]	@ zero_extendqisi2
 369 0004 DBB2     		uxtb	r3, r3
 370              	.LVL28:
 310:cyfitter_cfg.c **** 	if (enabled != 0u)
 311:cyfitter_cfg.c **** 	{
 312:cyfitter_cfg.c **** 		regValue |= 0x00u;
 313:cyfitter_cfg.c **** 	}
 314:cyfitter_cfg.c **** 	else
 315:cyfitter_cfg.c **** 	{
 316:cyfitter_cfg.c **** 		regValue &= (uint8)~0x00u;
 317:cyfitter_cfg.c **** 	}
 318:cyfitter_cfg.c **** 	CY_SET_XTND_REG8((void CYFAR *)CYREG_PUMP_CR0, regValue);
 371              		.loc 1 318 0
 372 0006 1370     		strb	r3, [r2]
 373 0008 7047     		bx	lr
 374              	.L26:
 375 000a 00BF     		.align	2
 376              	.L25:
 377 000c 76580040 		.word	1073764470
 378              		.cfi_endproc
 379              	.LFE7:
 380              		.size	SetAnalogRoutingPumps, .-SetAnalogRoutingPumps
 381              		.section	.text.cyfitter_cfg,"ax",%progbits
 382              		.align	2
 383              		.global	cyfitter_cfg
 384              		.thumb
 385              		.thumb_func
 386              		.type	cyfitter_cfg, %function
 387              	cyfitter_cfg:
 388              	.LFB8:
 319:cyfitter_cfg.c **** }
ARM GAS  C:\Users\Rowel\AppData\Local\Temp\ccoc2Esl.s 			page 14


 320:cyfitter_cfg.c **** 
 321:cyfitter_cfg.c **** #define CY_AMUX_UNUSED CYREG_BOOST_SR
 322:cyfitter_cfg.c **** 
 323:cyfitter_cfg.c **** 
 324:cyfitter_cfg.c **** /*******************************************************************************
 325:cyfitter_cfg.c **** * Function Name: cyfitter_cfg
 326:cyfitter_cfg.c **** ********************************************************************************
 327:cyfitter_cfg.c **** * Summary:
 328:cyfitter_cfg.c **** *  This function is called by the start-up code for the selected device. It
 329:cyfitter_cfg.c **** *  performs all of the necessary device configuration based on the design
 330:cyfitter_cfg.c **** *  settings.  This includes settings from the Design Wide Resources (DWR) such
 331:cyfitter_cfg.c **** *  as Clocks and Pins as well as any component configuration that is necessary.
 332:cyfitter_cfg.c **** *
 333:cyfitter_cfg.c **** * Parameters:  
 334:cyfitter_cfg.c **** *   void
 335:cyfitter_cfg.c **** *
 336:cyfitter_cfg.c **** * Return:
 337:cyfitter_cfg.c **** *   void
 338:cyfitter_cfg.c **** *
 339:cyfitter_cfg.c **** *******************************************************************************/
 340:cyfitter_cfg.c **** 
 341:cyfitter_cfg.c **** void cyfitter_cfg(void)
 342:cyfitter_cfg.c **** {
 389              		.loc 1 342 0
 390              		.cfi_startproc
 391              		@ args = 0, pretend = 0, frame = 0
 392              		@ frame_needed = 0, uses_anonymous_args = 0
 393 0000 38B5     		push	{r3, r4, r5, lr}
 394              		.cfi_def_cfa_offset 16
 395              		.cfi_offset 3, -16
 396              		.cfi_offset 4, -12
 397              		.cfi_offset 5, -8
 398              		.cfi_offset 14, -4
 343:cyfitter_cfg.c **** #ifdef CYGlobalIntDisable
 344:cyfitter_cfg.c **** 	/* Disable interrupts by default. Let user enable if/when they want. */
 345:cyfitter_cfg.c **** 	CYGlobalIntDisable
 399              		.loc 1 345 0
 400              		.syntax unified
 401              	@ 345 "cyfitter_cfg.c" 1
 402 0002 72B6     		CPSID   i
 403              	@ 0 "" 2
 346:cyfitter_cfg.c **** #endif
 347:cyfitter_cfg.c **** 
 348:cyfitter_cfg.c **** 	/* Enable/Disable Debug functionality based on settings from System DWR */
 349:cyfitter_cfg.c **** 	CY_SET_XTND_REG8((void CYFAR *)CYREG_MLOGIC_DEBUG, (CY_GET_XTND_REG8((void CYFAR *)CYREG_MLOGIC_DE
 404              		.loc 1 349 0
 405              		.thumb
 406              		.syntax unified
 407 0004 334A     		ldr	r2, .L33
 408 0006 1378     		ldrb	r3, [r2]	@ zero_extendqisi2
 409 0008 43F00403 		orr	r3, r3, #4
 410 000c 1370     		strb	r3, [r2]
 411              	.LVL29:
 412              	.LBB3:
 350:cyfitter_cfg.c **** 
 351:cyfitter_cfg.c **** 	{
 352:cyfitter_cfg.c **** 
ARM GAS  C:\Users\Rowel\AppData\Local\Temp\ccoc2Esl.s 			page 15


 353:cyfitter_cfg.c **** 		CYPACKED typedef struct {
 354:cyfitter_cfg.c **** 			void CYFAR *address;
 355:cyfitter_cfg.c **** 			uint16 size;
 356:cyfitter_cfg.c **** 		} CYPACKED_ATTR cfg_memset_t;
 357:cyfitter_cfg.c **** 
 358:cyfitter_cfg.c **** 
 359:cyfitter_cfg.c **** 		CYPACKED typedef struct {
 360:cyfitter_cfg.c **** 			void CYFAR *dest;
 361:cyfitter_cfg.c **** 			const void CYFAR *src;
 362:cyfitter_cfg.c **** 			uint16 size;
 363:cyfitter_cfg.c **** 		} CYPACKED_ATTR cfg_memcpy_t;
 364:cyfitter_cfg.c **** 
 365:cyfitter_cfg.c **** 		static const cfg_memset_t CYCODE cfg_memset_list [] = {
 366:cyfitter_cfg.c **** 			/* address, size */
 367:cyfitter_cfg.c **** 			{(void CYFAR *)(CYREG_TMR0_CFG0), 12u},
 368:cyfitter_cfg.c **** 			{(void CYFAR *)(CYREG_PRT2_DR), 80u},
 369:cyfitter_cfg.c **** 			{(void CYFAR *)(CYREG_PRT15_DR), 16u},
 370:cyfitter_cfg.c **** 			{(void CYFAR *)(CYDEV_UCFG_B0_P0_U0_BASE), 4096u},
 371:cyfitter_cfg.c **** 			{(void CYFAR *)(CYDEV_UCFG_B1_P2_U0_BASE), 2048u},
 372:cyfitter_cfg.c **** 			{(void CYFAR *)(CYDEV_UCFG_DSI0_BASE), 2560u},
 373:cyfitter_cfg.c **** 			{(void CYFAR *)(CYDEV_UCFG_DSI12_BASE), 512u},
 374:cyfitter_cfg.c **** 			{(void CYFAR *)(CYREG_BCTL0_MDCLK_EN), 32u},
 375:cyfitter_cfg.c **** 		};
 376:cyfitter_cfg.c **** 
 377:cyfitter_cfg.c **** 		static const cfg_memcpy_t CYCODE cfg_memcpy_list [] = {
 378:cyfitter_cfg.c **** 			/* dest, src, size */
 379:cyfitter_cfg.c **** 			{(void CYFAR *)(CYDEV_PICU_INTTYPE_PICU0_BASE), BS_PICU_0_VAL, 8u},
 380:cyfitter_cfg.c **** 		};
 381:cyfitter_cfg.c **** 
 382:cyfitter_cfg.c **** 		uint8 CYDATA i;
 383:cyfitter_cfg.c **** 
 384:cyfitter_cfg.c **** 		/* Zero out critical memory blocks before beginning configuration */
 385:cyfitter_cfg.c **** 		for (i = 0u; i < (sizeof(cfg_memset_list)/sizeof(cfg_memset_list[0])); i++)
 413              		.loc 1 385 0
 414 000e 0024     		movs	r4, #0
 415 0010 0CE0     		b	.L28
 416              	.LVL30:
 417              	.L29:
 418              	.LBB4:
 386:cyfitter_cfg.c **** 		{
 387:cyfitter_cfg.c **** 			const cfg_memset_t CYCODE * CYDATA ms = &cfg_memset_list[i];
 388:cyfitter_cfg.c **** 			CYMEMZERO(ms->address, (size_t)(uint32)(ms->size));
 419              		.loc 1 388 0 discriminator 3
 420 0012 314D     		ldr	r5, .L33+4
 421 0014 6300     		lsls	r3, r4, #1
 422 0016 1919     		adds	r1, r3, r4
 423 0018 4A00     		lsls	r2, r1, #1
 424 001a 1146     		mov	r1, r2
 425 001c 2A44     		add	r2, r2, r5
 426 001e 0846     		mov	r0, r1
 427 0020 9188     		ldrh	r1, [r2, #4]
 428 0022 2858     		ldr	r0, [r5, r0]	@ unaligned
 429 0024 FFF7FEFF 		bl	CYMEMZERO
 430              	.LVL31:
 431              	.LBE4:
 385:cyfitter_cfg.c **** 		{
 432              		.loc 1 385 0 discriminator 3
ARM GAS  C:\Users\Rowel\AppData\Local\Temp\ccoc2Esl.s 			page 16


 433 0028 0134     		adds	r4, r4, #1
 434              	.LVL32:
 435 002a E4B2     		uxtb	r4, r4
 436              	.LVL33:
 437              	.L28:
 385:cyfitter_cfg.c **** 		{
 438              		.loc 1 385 0 is_stmt 0 discriminator 1
 439 002c 072C     		cmp	r4, #7
 440 002e F0D9     		bls	.L29
 441 0030 0024     		movs	r4, #0
 442              	.LVL34:
 443 0032 0BE0     		b	.L30
 444              	.LVL35:
 445              	.L31:
 446              	.LBB5:
 389:cyfitter_cfg.c **** 		}
 390:cyfitter_cfg.c **** 
 391:cyfitter_cfg.c **** 		/* Copy device configuration data into registers */
 392:cyfitter_cfg.c **** 		for (i = 0u; i < (sizeof(cfg_memcpy_list)/sizeof(cfg_memcpy_list[0])); i++)
 393:cyfitter_cfg.c **** 		{
 394:cyfitter_cfg.c **** 			const cfg_memcpy_t CYCODE * CYDATA mc = &cfg_memcpy_list[i];
 395:cyfitter_cfg.c **** 			void * CYDATA destPtr = mc->dest;
 447              		.loc 1 395 0 is_stmt 1 discriminator 3
 448 0034 2849     		ldr	r1, .L33+4
 449 0036 A300     		lsls	r3, r4, #2
 450 0038 1819     		adds	r0, r3, r4
 451 003a 4200     		lsls	r2, r0, #1
 452 003c 8818     		adds	r0, r1, r2
 453              	.LVL36:
 396:cyfitter_cfg.c **** 			const void * CYDATA srcPtr = mc->src;
 397:cyfitter_cfg.c **** 			uint16 CYDATA numBytes = mc->size;
 398:cyfitter_cfg.c **** 			CYCONFIGCPY(destPtr, srcPtr, numBytes);
 454              		.loc 1 398 0 discriminator 3
 455 003e 0822     		movs	r2, #8
 456 0040 416B     		ldr	r1, [r0, #52]	@ unaligned
 457              	.LVL37:
 458 0042 006B     		ldr	r0, [r0, #48]	@ unaligned
 459              	.LVL38:
 460 0044 FFF7FEFF 		bl	CYCONFIGCPY
 461              	.LVL39:
 462              	.LBE5:
 392:cyfitter_cfg.c **** 		{
 463              		.loc 1 392 0 discriminator 3
 464 0048 0134     		adds	r4, r4, #1
 465              	.LVL40:
 466 004a E4B2     		uxtb	r4, r4
 467              	.LVL41:
 468              	.L30:
 392:cyfitter_cfg.c **** 		{
 469              		.loc 1 392 0 is_stmt 0 discriminator 1
 470 004c 002C     		cmp	r4, #0
 471 004e F1D0     		beq	.L31
 399:cyfitter_cfg.c **** 		}
 400:cyfitter_cfg.c **** 
 401:cyfitter_cfg.c **** 		cfg_write_bytes32(cy_cfg_addr_table, cy_cfg_data_table);
 472              		.loc 1 401 0 is_stmt 1
 473 0050 2249     		ldr	r1, .L33+8
ARM GAS  C:\Users\Rowel\AppData\Local\Temp\ccoc2Esl.s 			page 17


 474 0052 4FF09040 		mov	r0, #1207959552
 475 0056 FFF7FEFF 		bl	cfg_write_bytes32
 476              	.LVL42:
 402:cyfitter_cfg.c **** 
 403:cyfitter_cfg.c **** 		/* Enable digital routing */
 404:cyfitter_cfg.c **** 		CY_SET_XTND_REG8((void CYFAR *)CYREG_BCTL0_BANK_CTL, CY_GET_XTND_REG8((void CYFAR *)CYREG_BCTL0_B
 477              		.loc 1 404 0
 478 005a 214A     		ldr	r2, .L33+12
 479 005c 1378     		ldrb	r3, [r2]	@ zero_extendqisi2
 480 005e 43F00203 		orr	r3, r3, #2
 481 0062 1370     		strb	r3, [r2]
 405:cyfitter_cfg.c **** 		CY_SET_XTND_REG8((void CYFAR *)CYREG_BCTL1_BANK_CTL, CY_GET_XTND_REG8((void CYFAR *)CYREG_BCTL1_B
 482              		.loc 1 405 0
 483 0064 1032     		adds	r2, r2, #16
 484 0066 1378     		ldrb	r3, [r2]	@ zero_extendqisi2
 485 0068 43F00203 		orr	r3, r3, #2
 486 006c 1370     		strb	r3, [r2]
 406:cyfitter_cfg.c **** 
 407:cyfitter_cfg.c **** 		/* Enable UDB array */
 408:cyfitter_cfg.c **** 		CY_SET_XTND_REG8((void CYFAR *)CYREG_PM_ACT_CFG0, CY_GET_XTND_REG8((void CYFAR *)CYREG_PM_ACT_CFG
 487              		.loc 1 408 0
 488 006e 1D4C     		ldr	r4, .L33+16
 489              	.LVL43:
 490 0070 2378     		ldrb	r3, [r4]	@ zero_extendqisi2
 491 0072 43F04003 		orr	r3, r3, #64
 492 0076 2370     		strb	r3, [r4]
 409:cyfitter_cfg.c **** 		CY_SET_XTND_REG8((void CYFAR *)CYREG_PM_AVAIL_CR2, CY_GET_XTND_REG8((void CYFAR *)CYREG_PM_AVAIL_
 493              		.loc 1 409 0
 494 0078 A2F58632 		sub	r2, r2, #68608
 495 007c 513A     		subs	r2, r2, #81
 496 007e 1378     		ldrb	r3, [r2]	@ zero_extendqisi2
 497 0080 43F01003 		orr	r3, r3, #16
 498 0084 1370     		strb	r3, [r2]
 499              	.LBE3:
 410:cyfitter_cfg.c **** 	}
 411:cyfitter_cfg.c **** 
 412:cyfitter_cfg.c **** 
 413:cyfitter_cfg.c **** 	/* Perform second pass device configuration. These items must be configured in specific order afte
 414:cyfitter_cfg.c **** 	CYCONFIGCPY((void CYFAR *)(CYREG_PRT0_DR), (const void CYFAR *)(BS_IOPINS0_0_VAL), 10u);
 500              		.loc 1 414 0
 501 0086 0A22     		movs	r2, #10
 502 0088 1749     		ldr	r1, .L33+20
 503 008a 1848     		ldr	r0, .L33+24
 504 008c FFF7FEFF 		bl	CYCONFIGCPY
 505              	.LVL44:
 415:cyfitter_cfg.c **** 	CYCONFIGCPY((void CYFAR *)(CYREG_PRT12_DM0), (const void CYFAR *)(BS_IOPINS0_7_VAL), 8u);
 506              		.loc 1 415 0
 507 0090 0822     		movs	r2, #8
 508 0092 1749     		ldr	r1, .L33+28
 509 0094 1748     		ldr	r0, .L33+32
 510 0096 FFF7FEFF 		bl	CYCONFIGCPY
 511              	.LVL45:
 416:cyfitter_cfg.c **** 	CYCONFIGCPY((void CYFAR *)(CYREG_PRT1_DM0), (const void CYFAR *)(BS_IOPINS0_1_VAL), 8u);
 512              		.loc 1 416 0
 513 009a 0822     		movs	r2, #8
 514 009c 1649     		ldr	r1, .L33+36
 515 009e 1748     		ldr	r0, .L33+40
ARM GAS  C:\Users\Rowel\AppData\Local\Temp\ccoc2Esl.s 			page 18


 516 00a0 FFF7FEFF 		bl	CYCONFIGCPY
 517              	.LVL46:
 417:cyfitter_cfg.c **** 	/* Switch Boost to the precision bandgap reference from its internal reference */
 418:cyfitter_cfg.c **** 	CY_SET_REG8((void CYXDATA *)CYREG_BOOST_CR2, (CY_GET_REG8((void CYXDATA *)CYREG_BOOST_CR2) | 0x08u
 518              		.loc 1 418 0
 519 00a4 164A     		ldr	r2, .L33+44
 520 00a6 1378     		ldrb	r3, [r2]	@ zero_extendqisi2
 521 00a8 43F00803 		orr	r3, r3, #8
 522 00ac 1370     		strb	r3, [r2]
 419:cyfitter_cfg.c **** 
 420:cyfitter_cfg.c **** 	/* Set Flash Cycles based on max possible frequency in case a glitch occurs during ClockSetup(). *
 421:cyfitter_cfg.c **** 	CY_SET_XTND_REG8((void CYFAR *)(CYREG_CACHE_CC_CTL), (((CYDEV_INSTRUCT_CACHE_ENABLED) != 0) ? 0x61
 523              		.loc 1 421 0
 524 00ae 154D     		ldr	r5, .L33+48
 525 00b0 6123     		movs	r3, #97
 526 00b2 2B70     		strb	r3, [r5]
 422:cyfitter_cfg.c **** 	/* Setup clocks based on selections from Clock DWR */
 423:cyfitter_cfg.c **** 	ClockSetup();
 527              		.loc 1 423 0
 528 00b4 FFF7FEFF 		bl	ClockSetup
 529              	.LVL47:
 424:cyfitter_cfg.c **** 	/* Set Flash Cycles based on newly configured 24.00MHz Bus Clock. */
 425:cyfitter_cfg.c **** 	CY_SET_XTND_REG8((void CYFAR *)(CYREG_CACHE_CC_CTL), (((CYDEV_INSTRUCT_CACHE_ENABLED) != 0) ? 0x81
 530              		.loc 1 425 0
 531 00b8 8123     		movs	r3, #129
 532 00ba 2B70     		strb	r3, [r5]
 426:cyfitter_cfg.c **** 	CY_SET_XTND_REG8((void CYFAR *)(CYREG_PANTHER_WAITPIPE), 0x01u);
 533              		.loc 1 426 0
 534 00bc 0122     		movs	r2, #1
 535 00be 124B     		ldr	r3, .L33+52
 536 00c0 1A70     		strb	r2, [r3]
 427:cyfitter_cfg.c **** 
 428:cyfitter_cfg.c **** 	/* Perform basic analog initialization to defaults */
 429:cyfitter_cfg.c **** 	AnalogSetDefault();
 537              		.loc 1 429 0
 538 00c2 FFF7FEFF 		bl	AnalogSetDefault
 539              	.LVL48:
 430:cyfitter_cfg.c **** 
 431:cyfitter_cfg.c **** 	/* Configure alternate active mode */
 432:cyfitter_cfg.c **** 	CYCONFIGCPY((void CYFAR *)CYDEV_PM_STBY_BASE, (const void CYFAR *)CYDEV_PM_ACT_BASE, 14u);
 540              		.loc 1 432 0
 541 00c6 0E22     		movs	r2, #14
 542 00c8 2146     		mov	r1, r4
 543 00ca 1048     		ldr	r0, .L33+56
 544 00cc FFF7FEFF 		bl	CYCONFIGCPY
 545              	.LVL49:
 546 00d0 38BD     		pop	{r3, r4, r5, pc}
 547              	.L34:
 548 00d2 00BF     		.align	2
 549              	.L33:
 550 00d4 E8460040 		.word	1073759976
 551 00d8 00000000 		.word	.LANCHOR0
 552 00dc 2C000048 		.word	1207959596
 553 00e0 03500140 		.word	1073827843
 554 00e4 A0430040 		.word	1073759136
 555 00e8 B4000048 		.word	1207959732
 556 00ec 00510040 		.word	1073762560
ARM GAS  C:\Users\Rowel\AppData\Local\Temp\ccoc2Esl.s 			page 19


 557 00f0 C0000048 		.word	1207959744
 558 00f4 C2510040 		.word	1073762754
 559 00f8 C8000048 		.word	1207959752
 560 00fc 12510040 		.word	1073762578
 561 0100 22430040 		.word	1073759010
 562 0104 00480040 		.word	1073760256
 563 0108 04000840 		.word	1074266116
 564 010c B0430040 		.word	1073759152
 565              		.cfi_endproc
 566              	.LFE8:
 567              		.size	cyfitter_cfg, .-cyfitter_cfg
 568              		.section	.rodata
 569              		.align	2
 570              		.set	.LANCHOR0,. + 0
 571              		.type	cfg_memset_list.5007, %object
 572              		.size	cfg_memset_list.5007, 48
 573              	cfg_memset_list.5007:
 574 0000 004F0040 		.word	1073762048
 575 0004 0C00     		.short	12
 576 0006 20510040 		.4byte	1073762592
 577 000a 5000     		.short	80
 578 000c F0510040 		.word	1073762800
 579 0010 1000     		.short	16
 580 0012 00000140 		.4byte	1073807360
 581 0016 0010     		.short	4096
 582 0018 00140140 		.word	1073812480
 583 001c 0008     		.short	2048
 584 001e 00400140 		.4byte	1073823744
 585 0022 000A     		.short	2560
 586 0024 004C0140 		.word	1073826816
 587 0028 0002     		.short	512
 588 002a 00500140 		.4byte	1073827840
 589 002e 2000     		.short	32
 590              		.type	cfg_memcpy_list.5008, %object
 591              		.size	cfg_memcpy_list.5008, 10
 592              	cfg_memcpy_list.5008:
 593 0030 00450040 		.word	1073759488
 594 0034 AC000048 		.word	1207959724
 595 0038 0800     		.short	8
 596              		.text
 597              	.Letext0:
 598              		.file 2 "i:\\programas\\x86\\cypress\\psoc creator\\4.1\\psoc creator\\import\\gnu\\arm\\5.4.1\\li
 599              		.file 3 "cytypes.h"
 600              		.file 4 "CyLib.h"